; Function Attrs: mustprogress nounwind uwtable
define hidden void @_ZN5nlsat6solverD2Ev(ptr nocapture noundef nonnull readonly align 8 dereferenceable(16) %this) unnamed_addr #5 align 2 personality ptr @__gxx_personality_v0 {
entry:
  %0 = load ptr, ptr %this, align 8
  %cmp.i = icmp eq ptr %0, null
  br i1 %cmp.i, label %invoke.cont, label %if.end.i

if.end.i:                                         ; preds = %entry
  tail call void @_ZN5nlsat6solver3impD2Ev(ptr noundef nonnull align 8 dereferenceable(728) %0) #24
  invoke void @_ZN6memory10deallocateEPv(ptr noundef nonnull %0)
          to label %invoke.cont unwind label %terminate.lpad

invoke.cont:                                      ; preds = %entry, %if.end.i
  %m_ctx = getelementptr inbounds i8, ptr %this, i64 8
  %1 = load ptr, ptr %m_ctx, align 8
  %cmp.i1 = icmp eq ptr %1, null
  br i1 %cmp.i1, label %invoke.cont2, label %if.end.i2

if.end.i2:                                        ; preds = %invoke.cont
  %m_am.i.i = getelementptr inbounds i8, ptr %1, i64 1272
  tail call void @_ZN17algebraic_numbers7managerD1Ev(ptr noundef nonnull align 8 dereferenceable(17) %m_am.i.i) #24
  %m_pm.i.i = getelementptr inbounds i8, ptr %1, i64 1264
  tail call void @_ZN10polynomial7managerD1Ev(ptr noundef nonnull align 8 dereferenceable(8) %m_pm.i.i) #24
  %m_qm.i.i = getelementptr inbounds i8, ptr %1, i64 536
  tail call void @_ZN11mpq_managerILb0EED1Ev(ptr noundef nonnull align 8 dereferenceable(728) %m_qm.i.i) #24
  %m_allocator.i.i = getelementptr inbounds i8, ptr %1, i64 16
  tail call void @_ZN22small_object_allocatorD1Ev(ptr noundef nonnull align 8 dereferenceable(520) %m_allocator.i.i) #24
  tail call void @_ZN10params_refD1Ev(ptr noundef nonnull align 8 dereferenceable(8) %1) #24
  invoke void @_ZN6memory10deallocateEPv(ptr noundef nonnull %1)
          to label %invoke.cont2 unwind label %terminate.lpad

invoke.cont2:                                     ; preds = %invoke.cont, %if.end.i2
  ret void

terminate.lpad:                                   ; preds = %if.end.i2, %if.end.i
  %2 = landingpad { ptr, i32 }
          catch ptr null
  %3 = extractvalue { ptr, i32 } %2, 0
  tail call void @__clang_call_terminate(ptr %3) #25
  unreachable
}